; Function Attrs: mustprogress uwtable
define void @_ZN6icu_7524CollationElementIterator5resetEv(ptr nocapture noundef nonnull align 8 dereferenceable(104) %this) local_unnamed_addr #1 align 2 {
entry:
  %iter_ = getelementptr inbounds i8, ptr %this, i64 8
  %0 = load ptr, ptr %iter_, align 8
  %vtable = load ptr, ptr %0, align 8
  %vfn = getelementptr inbounds i8, ptr %vtable, i64 32
  %1 = load ptr, ptr %vfn, align 8
  tail call void %1(ptr noundef nonnull align 8 dereferenceable(389) %0, i32 noundef 0)
  %otherHalf_ = getelementptr inbounds i8, ptr %this, i64 24
  store i32 0, ptr %otherHalf_, align 8
  %dir_ = getelementptr inbounds i8, ptr %this, i64 28
  store i8 0, ptr %dir_, align 4
  ret void
}